target datalayout = "e-m:e-p270:32:32-p271:32:32-p272:64:64-i64:64-i128:128-f80:128-n8:16:32:64-S128"
target triple = "x86_64-pc-linux-gnu"

@duckdb_je_opt_abort = external global i8, align 1
@mmap_flags = internal global i32 0, align 4
@os_overcommits = internal global i8 0, align 1
@.str.7 = private unnamed_addr constant [35 x i8] c"<jemalloc>: Error in munmap(): %s\0A\00", align 1

; Function Attrs: inlinehint nounwind uwtable
define internal i32 @get_errno() #6 {
  %1 = call ptr @__errno_location() #14
  %2 = load i32, ptr %1, align 4, !tbaa !15
  ret i32 %2
}

; Function Attrs: nounwind uwtable
define internal void @os_pages_unmap(ptr noundef %0, i64 noundef %1) #0 {
  %3 = alloca ptr, align 8
  %4 = alloca i64, align 8
  %5 = alloca [64 x i8], align 16
  store ptr %0, ptr %3, align 8, !tbaa !3
  store i64 %1, ptr %4, align 8, !tbaa !7
  br label %6

6:                                                ; preds = %2
  br label %7

7:                                                ; preds = %6
  br label %8

8:                                                ; preds = %7
  br label %9

9:                                                ; preds = %8
  %10 = load ptr, ptr %3, align 8, !tbaa !3
  %11 = load i64, ptr %4, align 8, !tbaa !7
  %12 = call i32 @munmap(ptr noundef %10, i64 noundef %11) #11
  %13 = icmp eq i32 %12, -1
  br i1 %13, label %14, label %23

14:                                               ; preds = %9
  call void @llvm.lifetime.start.p0(i64 64, ptr %5) #11
  %15 = call i32 @get_errno()
  %16 = getelementptr inbounds [64 x i8], ptr %5, i64 0, i64 0
  %17 = call i32 @duckdb_je_buferror(i32 noundef %15, ptr noundef %16, i64 noundef 64)
  %18 = getelementptr inbounds [64 x i8], ptr %5, i64 0, i64 0
  call void (ptr, ...) @duckdb_je_malloc_printf(ptr noundef @.str.7, ptr noundef %18)
  %19 = load i8, ptr @duckdb_je_opt_abort, align 1, !tbaa !11, !range !13, !noundef !14
  %20 = trunc i8 %19 to i1
  br i1 %20, label %21, label %22

21:                                               ; preds = %14
  call void @abort() #12
  unreachable

22:                                               ; preds = %14
  call void @llvm.lifetime.end.p0(i64 64, ptr %5) #11
  br label %23

23:                                               ; preds = %22, %9
  ret void
}

; Function Attrs: nounwind uwtable
define internal zeroext i1 @os_pages_commit(ptr noundef %0, i64 noundef %1, i1 noundef zeroext %2) #0 {
  %4 = alloca i1, align 1
  %5 = alloca ptr, align 8
  %6 = alloca i64, align 8
  %7 = alloca i8, align 1
  %8 = alloca i32, align 4
  %9 = alloca ptr, align 8
  %10 = alloca i32, align 4
  store ptr %0, ptr %5, align 8, !tbaa !3
  store i64 %1, ptr %6, align 8, !tbaa !7
  %11 = zext i1 %2 to i8
  store i8 %11, ptr %7, align 1, !tbaa !11
  br label %12

12:                                               ; preds = %3
  br label %13

13:                                               ; preds = %12
  br label %14

14:                                               ; preds = %13
  br label %15

15:                                               ; preds = %14
  call void @llvm.lifetime.start.p0(i64 4, ptr %8) #11
  %16 = load i8, ptr %7, align 1, !tbaa !11, !range !13, !noundef !14
  %17 = trunc i8 %16 to i1
  %18 = select i1 %17, i32 3, i32 0
  store i32 %18, ptr %8, align 4, !tbaa !15
  call void @llvm.lifetime.start.p0(i64 8, ptr %9) #11
  %19 = load ptr, ptr %5, align 8, !tbaa !3
  %20 = load i64, ptr %6, align 8, !tbaa !7
  %21 = load i32, ptr %8, align 4, !tbaa !15
  %22 = load i32, ptr @mmap_flags, align 4, !tbaa !15
  %23 = or i32 %22, 16
  %24 = call ptr @mmap(ptr noundef %19, i64 noundef %20, i32 noundef %21, i32 noundef %23, i32 noundef -1, i64 noundef 0) #11
  store ptr %24, ptr %9, align 8, !tbaa !3
  %25 = load ptr, ptr %9, align 8, !tbaa !3
  %26 = icmp eq ptr %25, inttoptr (i64 -1 to ptr)
  br i1 %26, label %27, label %28

27:                                               ; preds = %15
  store i1 true, ptr %4, align 1
  store i32 1, ptr %10, align 4
  br label %36

28:                                               ; preds = %15
  %29 = load ptr, ptr %9, align 8, !tbaa !3
  %30 = load ptr, ptr %5, align 8, !tbaa !3
  %31 = icmp ne ptr %29, %30
  br i1 %31, label %32, label %35

32:                                               ; preds = %28
  %33 = load ptr, ptr %9, align 8, !tbaa !3
  %34 = load i64, ptr %6, align 8, !tbaa !7
  call void @os_pages_unmap(ptr noundef %33, i64 noundef %34)
  store i1 true, ptr %4, align 1
  store i32 1, ptr %10, align 4
  br label %36

35:                                               ; preds = %28
  store i1 false, ptr %4, align 1
  store i32 1, ptr %10, align 4
  br label %36

36:                                               ; preds = %35, %32, %27
  call void @llvm.lifetime.end.p0(i64 8, ptr %9) #11
  call void @llvm.lifetime.end.p0(i64 4, ptr %8) #11
  %37 = load i1, ptr %4, align 1
  ret i1 %37
}

; Function Attrs: nounwind uwtable
define internal zeroext i1 @pages_commit_impl(ptr noundef %0, i64 noundef %1, i1 noundef zeroext %2) #0 {
  %4 = alloca i1, align 1
  %5 = alloca ptr, align 8
  %6 = alloca i64, align 8
  %7 = alloca i8, align 1
  store ptr %0, ptr %5, align 8, !tbaa !3
  store i64 %1, ptr %6, align 8, !tbaa !7
  %8 = zext i1 %2 to i8
  store i8 %8, ptr %7, align 1, !tbaa !11
  %9 = load i8, ptr @os_overcommits, align 1, !tbaa !11, !range !13, !noundef !14
  %10 = trunc i8 %9 to i1
  br i1 %10, label %11, label %12

11:                                               ; preds = %3
  store i1 true, ptr %4, align 1
  br label %18

12:                                               ; preds = %3
  %13 = load ptr, ptr %5, align 8, !tbaa !3
  %14 = load i64, ptr %6, align 8, !tbaa !7
  %15 = load i8, ptr %7, align 1, !tbaa !11, !range !13, !noundef !14
  %16 = trunc i8 %15 to i1
  %17 = call zeroext i1 @os_pages_commit(ptr noundef %13, i64 noundef %14, i1 noundef zeroext %16)
  store i1 %17, ptr %4, align 1
  br label %18

18:                                               ; preds = %12, %11
  %19 = load i1, ptr %4, align 1
  ret i1 %19
}